target datalayout = "e-m:e-p270:32:32-p271:32:32-p272:64:64-i64:64-i128:128-f80:128-n8:16:32:64-S128"
target triple = "x86_64-pc-linux-gnu"

%struct._zend_refcounted_h = type { i32, %union.anon }
%union.anon = type { i32 }
%struct.smart_str = type { ptr, i64 }
%struct._zend_string = type { %struct._zend_refcounted_h, i64, i64, [1 x i8] }

; Function Attrs: nounwind uwtable
define ptr @zend_print_zval_r_to_str(ptr noundef %0, i32 noundef %1) #0 {
  %3 = alloca ptr, align 8
  %4 = alloca ptr, align 8
  %5 = alloca i32, align 4
  %6 = alloca %struct.smart_str, align 8
  store ptr %0, ptr %4, align 8
  store i32 %1, ptr %5, align 4
  call void @llvm.memset.p0.i64(ptr align 8 %6, i8 0, i64 16, i1 false)
  %7 = load ptr, ptr %4, align 8
  %8 = load i32, ptr %5, align 4
  call void @zend_print_zval_r_to_buf(ptr noundef %6, ptr noundef %7, i32 noundef %8)
  store ptr %6, ptr %3, align 8
  %9 = load ptr, ptr %3, align 8
  %10 = load ptr, ptr %9, align 8
  %11 = icmp ne ptr %10, null
  br i1 %11, label %12, label %21

12:                                               ; preds = %2
  %13 = load ptr, ptr %3, align 8
  %14 = load ptr, ptr %13, align 8
  %15 = getelementptr inbounds %struct._zend_string, ptr %14, i32 0, i32 3
  %16 = load ptr, ptr %3, align 8
  %17 = load ptr, ptr %16, align 8
  %18 = getelementptr inbounds %struct._zend_string, ptr %17, i32 0, i32 2
  %19 = load i64, ptr %18, align 8
  %20 = getelementptr inbounds [1 x i8], ptr %15, i64 0, i64 %19
  store i8 0, ptr %20, align 1
  br label %21

21:                                               ; preds = %12, %2
  %22 = getelementptr inbounds %struct.smart_str, ptr %6, i32 0, i32 0
  %23 = load ptr, ptr %22, align 8
  ret ptr %23
}