; Function Attrs: nounwind uwtable
define ptr @zend_print_zval_r_to_str(ptr noundef %0, i32 noundef %1) local_unnamed_addr #0 {
  %3 = alloca %struct.smart_str, align 8
  call void @llvm.memset.p0.i64(ptr noundef nonnull align 8 dereferenceable(16) %3, i8 0, i64 16, i1 false)
  call fastcc void @zend_print_zval_r_to_buf(ptr noundef nonnull %3, ptr noundef %0, i32 noundef %1)
  %4 = load ptr, ptr %3, align 8
  %.not = icmp eq ptr %4, null
  br i1 %.not, label %10, label %5

5:                                                ; preds = %2
  %6 = getelementptr inbounds i8, ptr %4, i64 24
  %7 = getelementptr inbounds i8, ptr %4, i64 16
  %8 = load i64, ptr %7, align 8
  %9 = getelementptr inbounds [1 x i8], ptr %6, i64 0, i64 %8
  store i8 0, ptr %9, align 1
  %.pre = load ptr, ptr %3, align 8
  br label %10

10:                                               ; preds = %5, %2
  %11 = phi ptr [ %.pre, %5 ], [ null, %2 ]
  ret ptr %11
}